target datalayout = "e-m:e-p270:32:32-p271:32:32-p272:64:64-i64:64-i128:128-f80:128-n8:16:32:64-S128"
target triple = "x86_64-pc-linux-gnu"

; Function Attrs: nounwind uwtable
define internal i32 @gauss_make_triangular(ptr noundef %0, ptr noundef %1, i32 noundef %2) #2 {
  %4 = alloca i32, align 4
  %5 = alloca ptr, align 8
  %6 = alloca ptr, align 8
  %7 = alloca i32, align 4
  %8 = alloca i32, align 4
  %9 = alloca i32, align 4
  %10 = alloca double, align 8
  %11 = alloca i32, align 4
  %12 = alloca i32, align 4
  %13 = alloca i32, align 4
  %14 = alloca i32, align 4
  %15 = alloca double, align 8
  %16 = alloca i32, align 4
  %17 = alloca i32, align 4
  store ptr %0, ptr %5, align 8, !tbaa !97
  store ptr %1, ptr %6, align 8, !tbaa !98
  store i32 %2, ptr %7, align 4, !tbaa !38
  %18 = load i32, ptr %7, align 4, !tbaa !38
  %19 = sub nsw i32 %18, 1
  %20 = load ptr, ptr %6, align 8, !tbaa !98
  %21 = load i32, ptr %7, align 4, !tbaa !38
  %22 = sub nsw i32 %21, 1
  %23 = sext i32 %22 to i64
  %24 = getelementptr inbounds i32, ptr %20, i64 %23
  store i32 %19, ptr %24, align 4, !tbaa !38
  call void @llvm.lifetime.start.p0(i64 4, ptr %8) #10
  store i32 0, ptr %8, align 4, !tbaa !38
  br label %25

25:                                               ; preds = %244, %3
  %26 = load i32, ptr %8, align 4, !tbaa !38
  %27 = load i32, ptr %7, align 4, !tbaa !38
  %28 = icmp slt i32 %26, %27
  br i1 %28, label %30, label %29

29:                                               ; preds = %25
  store i32 2, ptr %9, align 4
  br label %247

30:                                               ; preds = %25
  call void @llvm.lifetime.start.p0(i64 8, ptr %10) #10
  call void @llvm.lifetime.start.p0(i64 4, ptr %11) #10
  %31 = load i32, ptr %8, align 4, !tbaa !38
  store i32 %31, ptr %11, align 4, !tbaa !38
  call void @llvm.lifetime.start.p0(i64 4, ptr %12) #10
  %32 = load i32, ptr %8, align 4, !tbaa !38
  %33 = add nsw i32 %32, 1
  store i32 %33, ptr %12, align 4, !tbaa !38
  br label %34

34:                                               ; preds = %64, %30
  %35 = load i32, ptr %12, align 4, !tbaa !38
  %36 = load i32, ptr %7, align 4, !tbaa !38
  %37 = icmp slt i32 %35, %36
  br i1 %37, label %39, label %38

38:                                               ; preds = %34
  store i32 5, ptr %9, align 4
  call void @llvm.lifetime.end.p0(i64 4, ptr %12) #10
  br label %67

39:                                               ; preds = %34
  %40 = load ptr, ptr %5, align 8, !tbaa !97
  %41 = load i32, ptr %8, align 4, !tbaa !38
  %42 = load i32, ptr %7, align 4, !tbaa !38
  %43 = load i32, ptr %12, align 4, !tbaa !38
  %44 = mul nsw i32 %42, %43
  %45 = add nsw i32 %41, %44
  %46 = sext i32 %45 to i64
  %47 = getelementptr inbounds double, ptr %40, i64 %46
  %48 = load double, ptr %47, align 8, !tbaa !94
  %49 = call nsz double @llvm.fabs.f64(double %48)
  %50 = load ptr, ptr %5, align 8, !tbaa !97
  %51 = load i32, ptr %8, align 4, !tbaa !38
  %52 = load i32, ptr %7, align 4, !tbaa !38
  %53 = load i32, ptr %11, align 4, !tbaa !38
  %54 = mul nsw i32 %52, %53
  %55 = add nsw i32 %51, %54
  %56 = sext i32 %55 to i64
  %57 = getelementptr inbounds double, ptr %50, i64 %56
  %58 = load double, ptr %57, align 8, !tbaa !94
  %59 = call nsz double @llvm.fabs.f64(double %58)
  %60 = fcmp nsz ogt double %49, %59
  br i1 %60, label %61, label %63

61:                                               ; preds = %39
  %62 = load i32, ptr %12, align 4, !tbaa !38
  store i32 %62, ptr %11, align 4, !tbaa !38
  br label %63

63:                                               ; preds = %61, %39
  br label %64

64:                                               ; preds = %63
  %65 = load i32, ptr %12, align 4, !tbaa !38
  %66 = add nsw i32 %65, 1
  store i32 %66, ptr %12, align 4, !tbaa !38
  br label %34, !llvm.loop !119

67:                                               ; preds = %38
  %68 = load i32, ptr %11, align 4, !tbaa !38
  %69 = load ptr, ptr %6, align 8, !tbaa !98
  %70 = load i32, ptr %8, align 4, !tbaa !38
  %71 = sext i32 %70 to i64
  %72 = getelementptr inbounds i32, ptr %69, i64 %71
  store i32 %68, ptr %72, align 4, !tbaa !38
  %73 = load ptr, ptr %5, align 8, !tbaa !97
  %74 = load i32, ptr %8, align 4, !tbaa !38
  %75 = load i32, ptr %7, align 4, !tbaa !38
  %76 = load i32, ptr %11, align 4, !tbaa !38
  %77 = mul nsw i32 %75, %76
  %78 = add nsw i32 %74, %77
  %79 = sext i32 %78 to i64
  %80 = getelementptr inbounds double, ptr %73, i64 %79
  %81 = load double, ptr %80, align 8, !tbaa !94
  store double %81, ptr %10, align 8, !tbaa !94
  %82 = load ptr, ptr %5, align 8, !tbaa !97
  %83 = load i32, ptr %8, align 4, !tbaa !38
  %84 = load i32, ptr %7, align 4, !tbaa !38
  %85 = load i32, ptr %8, align 4, !tbaa !38
  %86 = mul nsw i32 %84, %85
  %87 = add nsw i32 %83, %86
  %88 = sext i32 %87 to i64
  %89 = getelementptr inbounds double, ptr %82, i64 %88
  %90 = load double, ptr %89, align 8, !tbaa !94
  %91 = load ptr, ptr %5, align 8, !tbaa !97
  %92 = load i32, ptr %8, align 4, !tbaa !38
  %93 = load i32, ptr %7, align 4, !tbaa !38
  %94 = load i32, ptr %11, align 4, !tbaa !38
  %95 = mul nsw i32 %93, %94
  %96 = add nsw i32 %92, %95
  %97 = sext i32 %96 to i64
  %98 = getelementptr inbounds double, ptr %91, i64 %97
  store double %90, ptr %98, align 8, !tbaa !94
  %99 = load double, ptr %10, align 8, !tbaa !94
  %100 = load ptr, ptr %5, align 8, !tbaa !97
  %101 = load i32, ptr %8, align 4, !tbaa !38
  %102 = load i32, ptr %7, align 4, !tbaa !38
  %103 = load i32, ptr %8, align 4, !tbaa !38
  %104 = mul nsw i32 %102, %103
  %105 = add nsw i32 %101, %104
  %106 = sext i32 %105 to i64
  %107 = getelementptr inbounds double, ptr %100, i64 %106
  store double %99, ptr %107, align 8, !tbaa !94
  %108 = load double, ptr %10, align 8, !tbaa !94
  %109 = fcmp nsz une double %108, 0.000000e+00
  br i1 %109, label %110, label %239

110:                                              ; preds = %67
  call void @llvm.lifetime.start.p0(i64 4, ptr %13) #10
  %111 = load i32, ptr %8, align 4, !tbaa !38
  %112 = add nsw i32 %111, 1
  store i32 %112, ptr %13, align 4, !tbaa !38
  br label %113

113:                                              ; preds = %131, %110
  %114 = load i32, ptr %13, align 4, !tbaa !38
  %115 = load i32, ptr %7, align 4, !tbaa !38
  %116 = icmp slt i32 %114, %115
  br i1 %116, label %118, label %117

117:                                              ; preds = %113
  store i32 8, ptr %9, align 4
  call void @llvm.lifetime.end.p0(i64 4, ptr %13) #10
  br label %134

118:                                              ; preds = %113
  %119 = load double, ptr %10, align 8, !tbaa !94
  %120 = fneg nsz double %119
  %121 = load ptr, ptr %5, align 8, !tbaa !97
  %122 = load i32, ptr %8, align 4, !tbaa !38
  %123 = load i32, ptr %7, align 4, !tbaa !38
  %124 = load i32, ptr %13, align 4, !tbaa !38
  %125 = mul nsw i32 %123, %124
  %126 = add nsw i32 %122, %125
  %127 = sext i32 %126 to i64
  %128 = getelementptr inbounds double, ptr %121, i64 %127
  %129 = load double, ptr %128, align 8, !tbaa !94
  %130 = fdiv nsz double %129, %120
  store double %130, ptr %128, align 8, !tbaa !94
  br label %131

131:                                              ; preds = %118
  %132 = load i32, ptr %13, align 4, !tbaa !38
  %133 = add nsw i32 %132, 1
  store i32 %133, ptr %13, align 4, !tbaa !38
  br label %113, !llvm.loop !120

134:                                              ; preds = %117
  %135 = load i32, ptr %8, align 4, !tbaa !38
  %136 = load i32, ptr %11, align 4, !tbaa !38
  %137 = icmp ne i32 %135, %136
  br i1 %137, label %138, label %186

138:                                              ; preds = %134
  call void @llvm.lifetime.start.p0(i64 4, ptr %14) #10
  %139 = load i32, ptr %8, align 4, !tbaa !38
  %140 = add nsw i32 %139, 1
  store i32 %140, ptr %14, align 4, !tbaa !38
  br label %141

141:                                              ; preds = %182, %138
  %142 = load i32, ptr %14, align 4, !tbaa !38
  %143 = load i32, ptr %7, align 4, !tbaa !38
  %144 = icmp slt i32 %142, %143
  br i1 %144, label %146, label %145

145:                                              ; preds = %141
  store i32 11, ptr %9, align 4
  call void @llvm.lifetime.end.p0(i64 4, ptr %14) #10
  br label %185

146:                                              ; preds = %141
  call void @llvm.lifetime.start.p0(i64 8, ptr %15) #10
  %147 = load ptr, ptr %5, align 8, !tbaa !97
  %148 = load i32, ptr %14, align 4, !tbaa !38
  %149 = load i32, ptr %7, align 4, !tbaa !38
  %150 = load i32, ptr %11, align 4, !tbaa !38
  %151 = mul nsw i32 %149, %150
  %152 = add nsw i32 %148, %151
  %153 = sext i32 %152 to i64
  %154 = getelementptr inbounds double, ptr %147, i64 %153
  %155 = load double, ptr %154, align 8, !tbaa !94
  store double %155, ptr %15, align 8, !tbaa !94
  %156 = load ptr, ptr %5, align 8, !tbaa !97
  %157 = load i32, ptr %14, align 4, !tbaa !38
  %158 = load i32, ptr %7, align 4, !tbaa !38
  %159 = load i32, ptr %8, align 4, !tbaa !38
  %160 = mul nsw i32 %158, %159
  %161 = add nsw i32 %157, %160
  %162 = sext i32 %161 to i64
  %163 = getelementptr inbounds double, ptr %156, i64 %162
  %164 = load double, ptr %163, align 8, !tbaa !94
  %165 = load ptr, ptr %5, align 8, !tbaa !97
  %166 = load i32, ptr %14, align 4, !tbaa !38
  %167 = load i32, ptr %7, align 4, !tbaa !38
  %168 = load i32, ptr %11, align 4, !tbaa !38
  %169 = mul nsw i32 %167, %168
  %170 = add nsw i32 %166, %169
  %171 = sext i32 %170 to i64
  %172 = getelementptr inbounds double, ptr %165, i64 %171
  store double %164, ptr %172, align 8, !tbaa !94
  %173 = load double, ptr %15, align 8, !tbaa !94
  %174 = load ptr, ptr %5, align 8, !tbaa !97
  %175 = load i32, ptr %14, align 4, !tbaa !38
  %176 = load i32, ptr %7, align 4, !tbaa !38
  %177 = load i32, ptr %8, align 4, !tbaa !38
  %178 = mul nsw i32 %176, %177
  %179 = add nsw i32 %175, %178
  %180 = sext i32 %179 to i64
  %181 = getelementptr inbounds double, ptr %174, i64 %180
  store double %173, ptr %181, align 8, !tbaa !94
  call void @llvm.lifetime.end.p0(i64 8, ptr %15) #10
  br label %182

182:                                              ; preds = %146
  %183 = load i32, ptr %14, align 4, !tbaa !38
  %184 = add nsw i32 %183, 1
  store i32 %184, ptr %14, align 4, !tbaa !38
  br label %141, !llvm.loop !121

185:                                              ; preds = %145
  br label %186

186:                                              ; preds = %185, %134
  call void @llvm.lifetime.start.p0(i64 4, ptr %16) #10
  %187 = load i32, ptr %8, align 4, !tbaa !38
  %188 = add nsw i32 %187, 1
  store i32 %188, ptr %16, align 4, !tbaa !38
  br label %189

189:                                              ; preds = %235, %186
  %190 = load i32, ptr %16, align 4, !tbaa !38
  %191 = load i32, ptr %7, align 4, !tbaa !38
  %192 = icmp slt i32 %190, %191
  br i1 %192, label %194, label %193

193:                                              ; preds = %189
  store i32 14, ptr %9, align 4
  call void @llvm.lifetime.end.p0(i64 4, ptr %16) #10
  br label %238

194:                                              ; preds = %189
  call void @llvm.lifetime.start.p0(i64 4, ptr %17) #10
  %195 = load i32, ptr %8, align 4, !tbaa !38
  %196 = add nsw i32 %195, 1
  store i32 %196, ptr %17, align 4, !tbaa !38
  br label %197

197:                                              ; preds = %231, %194
  %198 = load i32, ptr %17, align 4, !tbaa !38
  %199 = load i32, ptr %7, align 4, !tbaa !38
  %200 = icmp slt i32 %198, %199
  br i1 %200, label %202, label %201

201:                                              ; preds = %197
  store i32 17, ptr %9, align 4
  call void @llvm.lifetime.end.p0(i64 4, ptr %17) #10
  br label %234

202:                                              ; preds = %197
  %203 = load ptr, ptr %5, align 8, !tbaa !97
  %204 = load i32, ptr %8, align 4, !tbaa !38
  %205 = load i32, ptr %16, align 4, !tbaa !38
  %206 = load i32, ptr %7, align 4, !tbaa !38
  %207 = mul nsw i32 %205, %206
  %208 = add nsw i32 %204, %207
  %209 = sext i32 %208 to i64
  %210 = getelementptr inbounds double, ptr %203, i64 %209
  %211 = load double, ptr %210, align 8, !tbaa !94
  %212 = load ptr, ptr %5, align 8, !tbaa !97
  %213 = load i32, ptr %17, align 4, !tbaa !38
  %214 = load i32, ptr %8, align 4, !tbaa !38
  %215 = load i32, ptr %7, align 4, !tbaa !38
  %216 = mul nsw i32 %214, %215
  %217 = add nsw i32 %213, %216
  %218 = sext i32 %217 to i64
  %219 = getelementptr inbounds double, ptr %212, i64 %218
  %220 = load double, ptr %219, align 8, !tbaa !94
  %221 = load ptr, ptr %5, align 8, !tbaa !97
  %222 = load i32, ptr %17, align 4, !tbaa !38
  %223 = load i32, ptr %7, align 4, !tbaa !38
  %224 = load i32, ptr %16, align 4, !tbaa !38
  %225 = mul nsw i32 %223, %224
  %226 = add nsw i32 %222, %225
  %227 = sext i32 %226 to i64
  %228 = getelementptr inbounds double, ptr %221, i64 %227
  %229 = load double, ptr %228, align 8, !tbaa !94
  %230 = call nsz double @llvm.fmuladd.f64(double %211, double %220, double %229)
  store double %230, ptr %228, align 8, !tbaa !94
  br label %231

231:                                              ; preds = %202
  %232 = load i32, ptr %17, align 4, !tbaa !38
  %233 = add nsw i32 %232, 1
  store i32 %233, ptr %17, align 4, !tbaa !38
  br label %197, !llvm.loop !122

234:                                              ; preds = %201
  br label %235

235:                                              ; preds = %234
  %236 = load i32, ptr %16, align 4, !tbaa !38
  %237 = add nsw i32 %236, 1
  store i32 %237, ptr %16, align 4, !tbaa !38
  br label %189, !llvm.loop !123

238:                                              ; preds = %193
  br label %240

239:                                              ; preds = %67
  store i32 0, ptr %4, align 4
  store i32 1, ptr %9, align 4
  br label %241

240:                                              ; preds = %238
  store i32 0, ptr %9, align 4
  br label %241

241:                                              ; preds = %240, %239
  call void @llvm.lifetime.end.p0(i64 4, ptr %11) #10
  call void @llvm.lifetime.end.p0(i64 8, ptr %10) #10
  %242 = load i32, ptr %9, align 4
  switch i32 %242, label %247 [
    i32 0, label %243
  ]

243:                                              ; preds = %241
  br label %244

244:                                              ; preds = %243
  %245 = load i32, ptr %8, align 4, !tbaa !38
  %246 = add nsw i32 %245, 1
  store i32 %246, ptr %8, align 4, !tbaa !38
  br label %25, !llvm.loop !124

247:                                              ; preds = %241, %29
  call void @llvm.lifetime.end.p0(i64 4, ptr %8) #10
  %248 = load i32, ptr %9, align 4
  switch i32 %248, label %252 [
    i32 2, label %249
    i32 1, label %250
  ]

249:                                              ; preds = %247
  store i32 1, ptr %4, align 4
  br label %250

250:                                              ; preds = %249, %247
  %251 = load i32, ptr %4, align 4
  ret i32 %251

252:                                              ; preds = %247
  unreachable
}